target datalayout = "e-m:e-p270:32:32-p271:32:32-p272:64:64-i64:64-i128:128-f80:128-n8:16:32:64-S128"
target triple = "x86_64-pc-linux-gnu"

%struct.darktable_t = type { %struct.dt_codepath_t, i32, i32, ptr, ptr, ptr, ptr, ptr, ptr, ptr, ptr, ptr, ptr, ptr, ptr, ptr, ptr, ptr, ptr, ptr, ptr, ptr, ptr, ptr, ptr, ptr, ptr, ptr, ptr, ptr, [64 x %struct.dt_pthread_mutex_t], %struct.dt_pthread_mutex_t, %struct.dt_pthread_mutex_t, %struct.dt_pthread_mutex_t, %struct.dt_pthread_mutex_t, %struct.dt_pthread_mutex_t, ptr, ptr, ptr, ptr, ptr, ptr, ptr, ptr, ptr, ptr, ptr, ptr, ptr, %struct.dt_lua_state_t, ptr, double, ptr, i32, [47 x i32], i32, i32, ptr, ptr, %struct.dt_sys_resources_t, %struct.dt_backthumb_t, %struct.dt_gimp_t }
%struct.dt_codepath_t = type { i8, [3 x i8] }
%struct.dt_pthread_mutex_t = type { %union.pthread_mutex_t }
%union.pthread_mutex_t = type { %struct.__pthread_mutex_s }
%struct.__pthread_mutex_s = type { i32, i32, i32, i32, i32, i16, i16, %struct.__pthread_internal_list }
%struct.__pthread_internal_list = type { ptr, ptr }
%struct.dt_lua_state_t = type { i32 }
%struct.dt_sys_resources_t = type { i64, i64, ptr, ptr, i32 }
%struct.dt_backthumb_t = type { double, double, i32, i32, i32, i32 }
%struct.dt_gimp_t = type { i32, ptr, ptr, i32, i32 }
%struct._GdkRGBA = type { double, double, double, double }
%struct.dt_gui_gtk_t = type { ptr, %struct.dt_gui_widgets_t, %struct.dt_gui_scrollbars_t, i32, ptr, i32, [39 x %struct._GdkRGBA], i32, i32, i32, i32, i32, double, double, double, double, ptr, double, double, double, double, i32, i32, [4096 x i8], i32, i32, i32, %struct.dt_pthread_mutex_t }
%struct.dt_gui_widgets_t = type { ptr, ptr, ptr, ptr, i32, i32, i32 }
%struct.dt_gui_scrollbars_t = type { ptr, ptr, i32 }
%struct._cairo_rectangle_int = type { i32, i32, i32, i32 }
%struct._GtkBorder = type { i16, i16, i16, i16 }
%struct.dt_bauhaus_t = type { ptr, %struct.dt_bauhaus_popup_t, ptr, float, float, i32, i32, float, [180 x i8], i32, i32, [2 x i32], i32, ptr, ptr, float, float, float, float, float, ptr, ptr, i32, i32, i32, %struct._GdkRGBA, %struct._GdkRGBA, %struct._GdkRGBA, %struct._GdkRGBA, %struct._GdkRGBA, %struct._GdkRGBA, %struct._GdkRGBA, %struct._GdkRGBA, %struct._GdkRGBA, %struct._GdkRGBA, %struct._GdkRGBA, %struct._GdkRGBA, %struct._GdkRGBA, %struct._GdkRGBA, %struct._GdkRGBA, [3 x %struct._GdkRGBA], [5 x %struct._GdkRGBA] }
%struct.dt_bauhaus_popup_t = type { ptr, ptr, %struct._GtkBorder, %struct._cairo_rectangle_int, i32, i32, i32 }

@darktable = external global %struct.darktable_t, align 8
@_resize_wrap_hovered = internal global ptr null, align 8

; Function Attrs: inlinehint nounwind uwtable
define internal void @set_color(ptr noundef %0, ptr noundef byval(%struct._GdkRGBA) align 8 %1) #4 {
  %3 = alloca ptr, align 8
  store ptr %0, ptr %3, align 8, !tbaa !83
  %4 = load ptr, ptr %3, align 8, !tbaa !83
  %5 = getelementptr inbounds nuw %struct._GdkRGBA, ptr %1, i32 0, i32 0
  %6 = load double, ptr %5, align 8, !tbaa !86
  %7 = getelementptr inbounds nuw %struct._GdkRGBA, ptr %1, i32 0, i32 1
  %8 = load double, ptr %7, align 8, !tbaa !88
  %9 = getelementptr inbounds nuw %struct._GdkRGBA, ptr %1, i32 0, i32 2
  %10 = load double, ptr %9, align 8, !tbaa !89
  %11 = getelementptr inbounds nuw %struct._GdkRGBA, ptr %1, i32 0, i32 3
  %12 = load double, ptr %11, align 8, !tbaa !92
  call void @cairo_set_source_rgba(ptr noundef %4, double noundef %6, double noundef %8, double noundef %10, double noundef %12)
  ret void
}

; Function Attrs: nounwind uwtable
define internal i32 @_resize_wrap_draw_handle(ptr noundef %0, ptr noundef %1, ptr noundef %2) #0 {
  %4 = alloca i32, align 4
  %5 = alloca ptr, align 8
  %6 = alloca ptr, align 8
  %7 = alloca ptr, align 8
  %8 = alloca %struct._cairo_rectangle_int, align 4
  store ptr %0, ptr %5, align 8, !tbaa !6
  store ptr %1, ptr %6, align 8, !tbaa !99
  store ptr %2, ptr %7, align 8, !tbaa !99
  %9 = load ptr, ptr %5, align 8, !tbaa !6
  %10 = load ptr, ptr @_resize_wrap_hovered, align 8, !tbaa !6
  %11 = icmp ne ptr %9, %10
  br i1 %11, label %12, label %13

12:                                               ; preds = %3
  store i32 0, ptr %4, align 4
  br label %57

13:                                               ; preds = %3
  call void @llvm.lifetime.start.p0(i64 16, ptr %8) #15
  %14 = load ptr, ptr %5, align 8, !tbaa !6
  call void @gtk_widget_get_allocation(ptr noundef %14, ptr noundef %8)
  %15 = load ptr, ptr %6, align 8, !tbaa !99
  %16 = load ptr, ptr getelementptr inbounds nuw (%struct.darktable_t, ptr @darktable, i32 0, i32 17), align 8, !tbaa !322
  %17 = getelementptr inbounds nuw %struct.dt_bauhaus_t, ptr %16, i32 0, i32 27
  call void @set_color(ptr noundef %15, ptr noundef byval(%struct._GdkRGBA) align 8 %17)
  %18 = load ptr, ptr %6, align 8, !tbaa !99
  %19 = getelementptr inbounds nuw %struct._cairo_rectangle_int, ptr %8, i32 0, i32 2
  %20 = load i32, ptr %19, align 4, !tbaa !80
  %21 = sdiv i32 %20, 8
  %22 = mul nsw i32 %21, 3
  %23 = sitofp i32 %22 to double
  %24 = getelementptr inbounds nuw %struct._cairo_rectangle_int, ptr %8, i32 0, i32 3
  %25 = load i32, ptr %24, align 4, !tbaa !82
  %26 = sitofp i32 %25 to double
  %27 = load ptr, ptr getelementptr inbounds nuw (%struct.darktable_t, ptr @darktable, i32 0, i32 14), align 8, !tbaa !24
  %28 = getelementptr inbounds nuw %struct.dt_gui_gtk_t, ptr %27, i32 0, i32 18
  %29 = load double, ptr %28, align 8, !tbaa !144
  %30 = fmul reassoc nsz arcp contract afn double 5.000000e+00, %29
  %31 = fdiv reassoc nsz arcp contract afn double %30, 4.000000e+00
  %32 = fmul reassoc nsz arcp contract afn double %31, 3.000000e+00
  %33 = fsub reassoc nsz arcp contract afn double %26, %32
  call void @cairo_move_to(ptr noundef %18, double noundef %23, double noundef %33)
  %34 = load ptr, ptr %6, align 8, !tbaa !99
  %35 = getelementptr inbounds nuw %struct._cairo_rectangle_int, ptr %8, i32 0, i32 2
  %36 = load i32, ptr %35, align 4, !tbaa !80
  %37 = sdiv i32 %36, 8
  %38 = mul nsw i32 %37, 5
  %39 = sitofp i32 %38 to double
  %40 = getelementptr inbounds nuw %struct._cairo_rectangle_int, ptr %8, i32 0, i32 3
  %41 = load i32, ptr %40, align 4, !tbaa !82
  %42 = sitofp i32 %41 to double
  %43 = load ptr, ptr getelementptr inbounds nuw (%struct.darktable_t, ptr @darktable, i32 0, i32 14), align 8, !tbaa !24
  %44 = getelementptr inbounds nuw %struct.dt_gui_gtk_t, ptr %43, i32 0, i32 18
  %45 = load double, ptr %44, align 8, !tbaa !144
  %46 = fmul reassoc nsz arcp contract afn double 5.000000e+00, %45
  %47 = fdiv reassoc nsz arcp contract afn double %46, 4.000000e+00
  %48 = fmul reassoc nsz arcp contract afn double %47, 3.000000e+00
  %49 = fsub reassoc nsz arcp contract afn double %42, %48
  call void @cairo_line_to(ptr noundef %34, double noundef %39, double noundef %49)
  %50 = load ptr, ptr %6, align 8, !tbaa !99
  %51 = load ptr, ptr getelementptr inbounds nuw (%struct.darktable_t, ptr @darktable, i32 0, i32 14), align 8, !tbaa !24
  %52 = getelementptr inbounds nuw %struct.dt_gui_gtk_t, ptr %51, i32 0, i32 18
  %53 = load double, ptr %52, align 8, !tbaa !144
  %54 = fmul reassoc nsz arcp contract afn double 5.000000e+00, %53
  %55 = fdiv reassoc nsz arcp contract afn double %54, 2.000000e+00
  call void @cairo_set_line_width(ptr noundef %50, double noundef %55)
  %56 = load ptr, ptr %6, align 8, !tbaa !99
  call void @cairo_stroke(ptr noundef %56)
  store i32 0, ptr %4, align 4
  call void @llvm.lifetime.end.p0(i64 16, ptr %8) #15
  br label %57

57:                                               ; preds = %13, %12
  %58 = load i32, ptr %4, align 4
  ret i32 %58
}