; Function Attrs: nounwind uwtable
define internal noundef i32 @_resize_wrap_draw_handle(ptr noundef %0, ptr noundef %1, ptr readnone captures(none) %2) #0 {
  %4 = alloca %struct._cairo_rectangle_int, align 4
  %5 = load ptr, ptr @_resize_wrap_hovered, align 8, !tbaa !76
  %.not = icmp eq ptr %0, %5
  br i1 %.not, label %6, label %37

6:                                                ; preds = %3
  call void @llvm.lifetime.start.p0(i64 16, ptr nonnull %4) #18
  call void @gtk_widget_get_allocation(ptr noundef %0, ptr noundef nonnull %4) #18
  %7 = load ptr, ptr getelementptr inbounds nuw (i8, ptr @darktable, i64 128), align 8, !tbaa !249
  %8 = getelementptr inbounds nuw i8, ptr %7, i64 432
  %.sroa.0.0.copyload = load double, ptr %8, align 1
  %.sroa.4.0..sroa_idx = getelementptr inbounds nuw i8, ptr %7, i64 440
  %.sroa.4.0.copyload = load double, ptr %.sroa.4.0..sroa_idx, align 1
  %.sroa.5.0..sroa_idx = getelementptr inbounds nuw i8, ptr %7, i64 448
  %.sroa.5.0.copyload = load double, ptr %.sroa.5.0..sroa_idx, align 1
  %.sroa.6.0..sroa_idx = getelementptr inbounds nuw i8, ptr %7, i64 456
  %.sroa.6.0.copyload = load double, ptr %.sroa.6.0..sroa_idx, align 1
  call void @cairo_set_source_rgba(ptr noundef %1, double noundef %.sroa.0.0.copyload, double noundef %.sroa.4.0.copyload, double noundef %.sroa.5.0.copyload, double noundef %.sroa.6.0.copyload) #18
  %9 = getelementptr inbounds nuw i8, ptr %4, i64 8
  %10 = load i32, ptr %9, align 4, !tbaa !68
  %11 = sdiv i32 %10, 8
  %12 = mul nsw i32 %11, 3
  %13 = sitofp i32 %12 to double
  %14 = getelementptr inbounds nuw i8, ptr %4, i64 12
  %15 = load i32, ptr %14, align 4, !tbaa !70
  %16 = sitofp i32 %15 to double
  %17 = load ptr, ptr getelementptr inbounds nuw (i8, ptr @darktable, i64 104), align 8, !tbaa !15
  %18 = getelementptr inbounds nuw i8, ptr %17, i64 1424
  %19 = load double, ptr %18, align 8, !tbaa !105
  %20 = fmul reassoc nsz arcp contract afn double %19, 3.750000e+00
  %21 = fsub reassoc nsz arcp contract afn double %16, %20
  call void @cairo_move_to(ptr noundef %1, double noundef %13, double noundef %21) #18
  %22 = load i32, ptr %9, align 4, !tbaa !68
  %23 = sdiv i32 %22, 8
  %24 = mul nsw i32 %23, 5
  %25 = sitofp i32 %24 to double
  %26 = load i32, ptr %14, align 4, !tbaa !70
  %27 = sitofp i32 %26 to double
  %28 = load ptr, ptr getelementptr inbounds nuw (i8, ptr @darktable, i64 104), align 8, !tbaa !15
  %29 = getelementptr inbounds nuw i8, ptr %28, i64 1424
  %30 = load double, ptr %29, align 8, !tbaa !105
  %31 = fmul reassoc nsz arcp contract afn double %30, 3.750000e+00
  %32 = fsub reassoc nsz arcp contract afn double %27, %31
  call void @cairo_line_to(ptr noundef %1, double noundef %25, double noundef %32) #18
  %33 = load ptr, ptr getelementptr inbounds nuw (i8, ptr @darktable, i64 104), align 8, !tbaa !15
  %34 = getelementptr inbounds nuw i8, ptr %33, i64 1424
  %35 = load double, ptr %34, align 8, !tbaa !105
  %36 = fmul reassoc nsz arcp contract afn double %35, 2.500000e+00
  call void @cairo_set_line_width(ptr noundef %1, double noundef %36) #18
  call void @cairo_stroke(ptr noundef %1) #18
  call void @llvm.lifetime.end.p0(i64 16, ptr nonnull %4) #18
  br label %37

37:                                               ; preds = %3, %6
  ret i32 0
}